target datalayout = "e-m:e-p270:32:32-p271:32:32-p272:64:64-i64:64-i128:128-f80:128-n8:16:32:64-S128"
target triple = "x86_64-pc-linux-gnu"

%struct.hwloc_synthetic_backend_data_s = type { ptr, i64, %struct.hwloc_synthetic_indexes_s, [128 x %struct.hwloc_synthetic_level_data_s] }
%struct.hwloc_synthetic_indexes_s = type { ptr, i64, ptr, i32 }
%struct.hwloc_synthetic_level_data_s = type { i32, i64, %struct.hwloc_synthetic_attr_s, %struct.hwloc_synthetic_indexes_s, ptr }
%struct.hwloc_synthetic_attr_s = type { i32, i32, i32, i64, i64 }
%struct.hwloc_synthetic_attached_s = type { %struct.hwloc_synthetic_attr_s, ptr }

; Function Attrs: nounwind uwtable
define internal void @hwloc_synthetic_free_levels(ptr noundef %0) #0 {
  %2 = alloca ptr, align 8
  %3 = alloca i32, align 4
  %4 = alloca ptr, align 8
  %5 = alloca ptr, align 8
  %6 = alloca ptr, align 8
  %7 = alloca i32, align 4
  store ptr %0, ptr %2, align 8, !tbaa !88
  call void @llvm.lifetime.start.p0(i64 4, ptr %3) #13
  store i32 0, ptr %3, align 4, !tbaa !14
  br label %8

8:                                                ; preds = %45, %1
  %9 = load i32, ptr %3, align 4, !tbaa !14
  %10 = icmp ult i32 %9, 128
  br i1 %10, label %11, label %48

11:                                               ; preds = %8
  call void @llvm.lifetime.start.p0(i64 8, ptr %4) #13
  %12 = load ptr, ptr %2, align 8, !tbaa !88
  %13 = getelementptr inbounds nuw %struct.hwloc_synthetic_backend_data_s, ptr %12, i32 0, i32 3
  %14 = load i32, ptr %3, align 4, !tbaa !14
  %15 = zext i32 %14 to i64
  %16 = getelementptr inbounds nuw [128 x %struct.hwloc_synthetic_level_data_s], ptr %13, i64 0, i64 %15
  store ptr %16, ptr %4, align 8, !tbaa !127
  call void @llvm.lifetime.start.p0(i64 8, ptr %5) #13
  %17 = load ptr, ptr %4, align 8, !tbaa !127
  %18 = getelementptr inbounds nuw %struct.hwloc_synthetic_level_data_s, ptr %17, i32 0, i32 4
  store ptr %18, ptr %5, align 8, !tbaa !117
  br label %19

19:                                               ; preds = %23, %11
  %20 = load ptr, ptr %5, align 8, !tbaa !117
  %21 = load ptr, ptr %20, align 8, !tbaa !111
  %22 = icmp ne ptr %21, null
  br i1 %22, label %23, label %31

23:                                               ; preds = %19
  call void @llvm.lifetime.start.p0(i64 8, ptr %6) #13
  %24 = load ptr, ptr %5, align 8, !tbaa !117
  %25 = load ptr, ptr %24, align 8, !tbaa !111
  store ptr %25, ptr %6, align 8, !tbaa !111
  %26 = load ptr, ptr %6, align 8, !tbaa !111
  %27 = getelementptr inbounds nuw %struct.hwloc_synthetic_attached_s, ptr %26, i32 0, i32 1
  %28 = load ptr, ptr %27, align 8, !tbaa !116
  %29 = load ptr, ptr %5, align 8, !tbaa !117
  store ptr %28, ptr %29, align 8, !tbaa !111
  %30 = load ptr, ptr %6, align 8, !tbaa !111
  call void @free(ptr noundef %30) #13
  call void @llvm.lifetime.end.p0(i64 8, ptr %6) #13
  br label %19, !llvm.loop !171

31:                                               ; preds = %19
  %32 = load ptr, ptr %4, align 8, !tbaa !127
  %33 = getelementptr inbounds nuw %struct.hwloc_synthetic_level_data_s, ptr %32, i32 0, i32 3
  %34 = getelementptr inbounds nuw %struct.hwloc_synthetic_indexes_s, ptr %33, i32 0, i32 2
  %35 = load ptr, ptr %34, align 8, !tbaa !104
  call void @free(ptr noundef %35) #13
  %36 = load ptr, ptr %4, align 8, !tbaa !127
  %37 = getelementptr inbounds nuw %struct.hwloc_synthetic_level_data_s, ptr %36, i32 0, i32 0
  %38 = load i32, ptr %37, align 8, !tbaa !109
  %39 = icmp ne i32 %38, 0
  br i1 %39, label %41, label %40

40:                                               ; preds = %31
  store i32 2, ptr %7, align 4
  br label %42

41:                                               ; preds = %31
  store i32 0, ptr %7, align 4
  br label %42

42:                                               ; preds = %41, %40
  call void @llvm.lifetime.end.p0(i64 8, ptr %5) #13
  call void @llvm.lifetime.end.p0(i64 8, ptr %4) #13
  %43 = load i32, ptr %7, align 4
  switch i32 %43, label %53 [
    i32 0, label %44
    i32 2, label %48
  ]

44:                                               ; preds = %42
  br label %45

45:                                               ; preds = %44
  %46 = load i32, ptr %3, align 4, !tbaa !14
  %47 = add i32 %46, 1
  store i32 %47, ptr %3, align 4, !tbaa !14
  br label %8, !llvm.loop !172

48:                                               ; preds = %42, %8
  %49 = load ptr, ptr %2, align 8, !tbaa !88
  %50 = getelementptr inbounds nuw %struct.hwloc_synthetic_backend_data_s, ptr %49, i32 0, i32 2
  %51 = getelementptr inbounds nuw %struct.hwloc_synthetic_indexes_s, ptr %50, i32 0, i32 2
  %52 = load ptr, ptr %51, align 8, !tbaa !97
  call void @free(ptr noundef %52) #13
  call void @llvm.lifetime.end.p0(i64 4, ptr %3) #13
  ret void

53:                                               ; preds = %42
  unreachable
}

; Function Attrs: nounwind uwtable
define internal void @hwloc_synthetic_backend_disable(ptr noundef %0) #0 {
  %2 = alloca ptr, align 8
  %3 = alloca ptr, align 8
  store ptr %0, ptr %2, align 8, !tbaa !87
  call void @llvm.lifetime.start.p0(i64 8, ptr %3) #13
  %4 = load ptr, ptr %2, align 8, !tbaa !87
  %5 = getelementptr inbounds nuw i8, ptr %4, i64 80
  store ptr %5, ptr %3, align 8, !tbaa !88
  %6 = load ptr, ptr %3, align 8, !tbaa !88
  call void @hwloc_synthetic_free_levels(ptr noundef %6)
  %7 = load ptr, ptr %3, align 8, !tbaa !88
  %8 = getelementptr inbounds nuw %struct.hwloc_synthetic_backend_data_s, ptr %7, i32 0, i32 0
  %9 = load ptr, ptr %8, align 8, !tbaa !131
  call void @free(ptr noundef %9) #13
  call void @llvm.lifetime.end.p0(i64 8, ptr %3) #13
  ret void
}