; Function Attrs: nounwind uwtable
define internal void @hwloc_synthetic_backend_disable(ptr noundef captures(none) %0) #0 {
  %2 = getelementptr inbounds nuw i8, ptr %0, i64 128
  br label %3

3:                                                ; preds = %._crit_edge.i, %1
  %indvars.iv.i = phi i64 [ 0, %1 ], [ %indvars.iv.next.i, %._crit_edge.i ]
  %4 = getelementptr inbounds nuw [128 x %struct.hwloc_synthetic_level_data_s], ptr %2, i64 0, i64 %indvars.iv.i
  %5 = getelementptr inbounds nuw i8, ptr %4, i64 80
  %6 = load ptr, ptr %5, align 8, !tbaa !98
  %.not16.i = icmp eq ptr %6, null
  br i1 %.not16.i, label %._crit_edge.i, label %.lr.ph.i

.lr.ph.i:                                         ; preds = %3, %.lr.ph.i
  %7 = phi ptr [ %10, %.lr.ph.i ], [ %6, %3 ]
  %8 = getelementptr inbounds nuw i8, ptr %7, i64 32
  %9 = load ptr, ptr %8, align 8, !tbaa !112
  store ptr %9, ptr %5, align 8, !tbaa !98
  tail call void @free(ptr noundef nonnull %7) #22
  %10 = load ptr, ptr %5, align 8, !tbaa !98
  %.not.i = icmp eq ptr %10, null
  br i1 %.not.i, label %._crit_edge.i, label %.lr.ph.i, !llvm.loop !113

._crit_edge.i:                                    ; preds = %.lr.ph.i, %3
  %11 = getelementptr inbounds nuw i8, ptr %4, i64 64
  %12 = load ptr, ptr %11, align 8, !tbaa !91
  tail call void @free(ptr noundef %12) #22
  %13 = load i32, ptr %4, align 8, !tbaa !94
  %.not15.i = icmp eq i32 %13, 0
  %indvars.iv.next.i = add nuw nsw i64 %indvars.iv.i, 1
  %exitcond.not.i = icmp eq i64 %indvars.iv.next.i, 128
  %or.cond.i = select i1 %.not15.i, i1 true, i1 %exitcond.not.i
  br i1 %or.cond.i, label %hwloc_synthetic_free_levels.exit, label %3, !llvm.loop !114

hwloc_synthetic_free_levels.exit:                 ; preds = %._crit_edge.i
  %14 = getelementptr inbounds nuw i8, ptr %0, i64 80
  %15 = getelementptr inbounds nuw i8, ptr %0, i64 112
  %16 = load ptr, ptr %15, align 8, !tbaa !85
  tail call void @free(ptr noundef %16) #22
  %17 = load ptr, ptr %14, align 8, !tbaa !115
  tail call void @free(ptr noundef %17) #22
  ret void
}